target datalayout = "e-m:e-p270:32:32-p271:32:32-p272:64:64-i64:64-i128:128-f80:128-n8:16:32:64-S128"
target triple = "x86_64-pc-linux-gnu"

%struct.SDL_Surface = type { i32, i32, i32, i32, i32, ptr, i32, ptr, i32, i32, ptr, i32, ptr, i32, ptr, i32, %struct.SDL_Rect, %struct.SDL_BlitMap }
%struct.SDL_Rect = type { i32, i32, i32, i32 }
%struct.SDL_BlitMap = type { i32, ptr, ptr, %struct.SDL_BlitInfo, i32, i32 }
%struct.SDL_BlitInfo = type { ptr, ptr, i32, i32, i32, i32, ptr, ptr, i32, i32, i32, i32, ptr, ptr, ptr, ptr, ptr, ptr, i32, i32, i8, i8, i8, i8 }

@SDL_surface_magic = internal global i8 0, align 1

; Function Attrs: nounwind uwtable
define hidden zeroext i1 @SDL_SurfaceValid(ptr noundef %0) #0 {
  %2 = alloca ptr, align 8
  store ptr %0, ptr %2, align 8
  %3 = load ptr, ptr %2, align 8
  %4 = icmp ne ptr %3, null
  br i1 %4, label %5, label %10

5:                                                ; preds = %1
  %6 = load ptr, ptr %2, align 8
  %7 = getelementptr inbounds nuw %struct.SDL_Surface, ptr %6, i32 0, i32 7
  %8 = load ptr, ptr %7, align 8
  %9 = icmp eq ptr %8, @SDL_surface_magic
  br label %10

10:                                               ; preds = %5, %1
  %11 = phi i1 [ false, %1 ], [ %9, %5 ]
  ret i1 %11
}

; Function Attrs: nounwind uwtable
define hidden zeroext i1 @SDL_SetSurfaceClipRect_REAL(ptr noundef %0, ptr noundef %1) #0 {
  %3 = alloca i1, align 1
  %4 = alloca ptr, align 8
  %5 = alloca ptr, align 8
  %6 = alloca %struct.SDL_Rect, align 4
  %7 = alloca i32, align 4
  store ptr %0, ptr %4, align 8
  store ptr %1, ptr %5, align 8
  call void @llvm.lifetime.start.p0(i64 16, ptr %6) #8
  %8 = load ptr, ptr %4, align 8
  %9 = call zeroext i1 @SDL_SurfaceValid(ptr noundef %8)
  br i1 %9, label %11, label %10

10:                                               ; preds = %2
  store i1 false, ptr %3, align 1
  store i32 1, ptr %7, align 4
  br label %32

11:                                               ; preds = %2
  %12 = getelementptr inbounds nuw %struct.SDL_Rect, ptr %6, i32 0, i32 0
  store i32 0, ptr %12, align 4
  %13 = getelementptr inbounds nuw %struct.SDL_Rect, ptr %6, i32 0, i32 1
  store i32 0, ptr %13, align 4
  %14 = load ptr, ptr %4, align 8
  %15 = getelementptr inbounds nuw %struct.SDL_Surface, ptr %14, i32 0, i32 2
  %16 = load i32, ptr %15, align 8
  %17 = getelementptr inbounds nuw %struct.SDL_Rect, ptr %6, i32 0, i32 2
  store i32 %16, ptr %17, align 4
  %18 = load ptr, ptr %4, align 8
  %19 = getelementptr inbounds nuw %struct.SDL_Surface, ptr %18, i32 0, i32 3
  %20 = load i32, ptr %19, align 4
  %21 = getelementptr inbounds nuw %struct.SDL_Rect, ptr %6, i32 0, i32 3
  store i32 %20, ptr %21, align 4
  %22 = load ptr, ptr %5, align 8
  %23 = icmp ne ptr %22, null
  br i1 %23, label %27, label %24

24:                                               ; preds = %11
  %25 = load ptr, ptr %4, align 8
  %26 = getelementptr inbounds nuw %struct.SDL_Surface, ptr %25, i32 0, i32 16
  call void @llvm.memcpy.p0.p0.i64(ptr align 4 %26, ptr align 4 %6, i64 16, i1 false)
  store i1 true, ptr %3, align 1
  store i32 1, ptr %7, align 4
  br label %32

27:                                               ; preds = %11
  %28 = load ptr, ptr %5, align 8
  %29 = load ptr, ptr %4, align 8
  %30 = getelementptr inbounds nuw %struct.SDL_Surface, ptr %29, i32 0, i32 16
  %31 = call zeroext i1 @SDL_GetRectIntersection_REAL(ptr noundef %28, ptr noundef %6, ptr noundef %30)
  store i1 %31, ptr %3, align 1
  store i32 1, ptr %7, align 4
  br label %32

32:                                               ; preds = %27, %24, %10
  call void @llvm.lifetime.end.p0(i64 16, ptr %6) #8
  %33 = load i1, ptr %3, align 1
  ret i1 %33
}