; Function Attrs: nounwind uwtable
define hidden zeroext i1 @SDL_SetSurfaceClipRect_REAL(ptr noundef %0, ptr noundef %1) local_unnamed_addr #2 {
  %3 = alloca %struct.SDL_Rect, align 4
  call void @llvm.lifetime.start.p0(i64 16, ptr nonnull %3) #10
  %.not.i = icmp eq ptr %0, null
  br i1 %.not.i, label %SDL_SurfaceValid.exit.thread, label %SDL_SurfaceValid.exit

SDL_SurfaceValid.exit:                            ; preds = %2
  %4 = getelementptr inbounds nuw i8, ptr %0, i64 40
  %5 = load ptr, ptr %4, align 8
  %6 = icmp eq ptr %5, @SDL_surface_magic
  br i1 %6, label %7, label %SDL_SurfaceValid.exit.thread

7:                                                ; preds = %SDL_SurfaceValid.exit
  store i32 0, ptr %3, align 4
  %8 = getelementptr inbounds nuw i8, ptr %3, i64 4
  store i32 0, ptr %8, align 4
  %9 = getelementptr inbounds nuw i8, ptr %0, i64 8
  %10 = load i32, ptr %9, align 8
  %11 = getelementptr inbounds nuw i8, ptr %3, i64 8
  store i32 %10, ptr %11, align 4
  %12 = getelementptr inbounds nuw i8, ptr %0, i64 12
  %13 = load i32, ptr %12, align 4
  %14 = getelementptr inbounds nuw i8, ptr %3, i64 12
  store i32 %13, ptr %14, align 4
  %.not = icmp eq ptr %1, null
  %15 = getelementptr inbounds nuw i8, ptr %0, i64 100
  br i1 %.not, label %16, label %17

16:                                               ; preds = %7
  call void @llvm.memcpy.p0.p0.i64(ptr noundef nonnull align 4 dereferenceable(16) %15, ptr noundef nonnull align 4 dereferenceable(16) %3, i64 16, i1 false)
  br label %SDL_SurfaceValid.exit.thread

17:                                               ; preds = %7
  %18 = call zeroext i1 @SDL_GetRectIntersection_REAL(ptr noundef nonnull %1, ptr noundef nonnull %3, ptr noundef nonnull %15) #10
  br label %SDL_SurfaceValid.exit.thread

SDL_SurfaceValid.exit.thread:                     ; preds = %2, %SDL_SurfaceValid.exit, %17, %16
  %.0 = phi i1 [ %18, %17 ], [ true, %16 ], [ false, %SDL_SurfaceValid.exit ], [ false, %2 ]
  call void @llvm.lifetime.end.p0(i64 16, ptr nonnull %3) #10
  ret i1 %.0
}